; Function Attrs: null_pointer_is_valid sspstrong uwtable
define internal i32 @dissect_ber_file(ptr noundef %0, ptr noundef %1, ptr noundef %2, ptr noundef readonly captures(none) %3) #0 {
  %5 = load ptr, ptr %3, align 8
  %6 = tail call ptr @strrchr(ptr noundef %5, i32 noundef 46) #18
  %.not = icmp eq ptr %6, null
  br i1 %.not, label %10, label %7

7:                                                ; preds = %4
  %8 = load ptr, ptr @syntax_table, align 8
  %9 = tail call ptr @g_hash_table_lookup(ptr noundef %8, ptr noundef nonnull %6)
  br label %10

10:                                               ; preds = %7, %4
  %.0 = phi ptr [ %9, %7 ], [ null, %4 ]
  %11 = tail call fastcc i32 @dissect_ber_common(ptr noundef %0, ptr noundef %1, ptr noundef %2, ptr noundef %.0)
  ret i32 %11
}